; Function Attrs: uwtable
define void @_ZTv0_n96_NK20colvarbias_restraint16get_state_paramsB5cxx11Ev(ptr dead_on_unwind noalias writable sret(%"class.std::__cxx11::basic_string") align 8 %0, ptr noundef %1) unnamed_addr #3 align 2 {
  %3 = load ptr, ptr %1, align 8
  %4 = getelementptr inbounds i8, ptr %3, i64 -96
  %5 = load i64, ptr %4, align 8
  %6 = getelementptr inbounds i8, ptr %1, i64 %5
  %7 = load ptr, ptr %6, align 8, !noalias !10
  %8 = getelementptr i8, ptr %7, i64 -24
  %9 = load i64, ptr %8, align 8, !noalias !10
  %10 = getelementptr inbounds i8, ptr %6, i64 %9
  tail call void @_ZNK10colvarbias16get_state_paramsB5cxx11Ev(ptr dead_on_unwind writable sret(%"class.std::__cxx11::basic_string") align 8 %0, ptr noundef nonnull align 8 dereferenceable(312) %10)
  ret void
}